#include <math.h>
#include <stdio.h>
#include <stdlib.h>
#include <string.h>

int main(){
  int n,a[100],i,j,t;
  scanf("%d",&n);
  for(i=0;i<n;i++){
  scanf("%d",&a[i]);
} 
  j=n-1;
  for(i=0;i<j;i++){
  t=a[i];
  a[i]=a[j];
a[j]=t;
 j--;
}
 for(i=0;i<n;i++){
if(i<n-1) printf("%d ",a[i]);
else printf("%d",a[i]);
}
return 0;
}